target datalayout = "e-m:e-p270:32:32-p271:32:32-p272:64:64-i64:64-i128:128-f80:128-n8:16:32:64-S128"
target triple = "x86_64-pc-linux-gnu"

%struct.DdManager = type { %struct.DdNode, ptr, ptr, ptr, ptr, ptr, ptr, ptr, i32, i32, double, double, double, i32, i32, i32, i32, i32, i32, ptr, ptr, %struct.DdSubtable, i32, i32, i32, i32, i32, i32, i32, double, i32, i32, i32, ptr, i64, double, i32, ptr, ptr, ptr, ptr, ptr, ptr, ptr, i32, ptr, ptr, ptr, ptr, ptr, ptr, i32, i32, i32, double, i32, i32, i32, i32, double, double, i32, i32, i32, i32, i32, i32, i32, i32, i32, ptr, ptr, i32, i32, i32, i32, i32, i32, ptr, ptr, ptr, ptr, ptr, ptr, ptr, ptr, i32, i64, i64, i64, i32, i64, i64, double, double, double, double, double, double, i32, ptr, ptr, i64 }
%struct.DdNode = type { i32, i32, ptr, %union.anon, i64 }
%union.anon = type { %struct.DdChildren }
%struct.DdChildren = type { ptr, ptr }
%struct.DdSubtable = type { ptr, i32, i32, i32, i32, i32, i32, i32, i32, i32, i32, i32 }

; Function Attrs: nounwind uwtable
define void @Extra_GraphExperiment() #0 {
  %1 = alloca [5 x [5 x i32]], align 16
  %2 = alloca i32, align 4
  %3 = alloca i32, align 4
  %4 = alloca ptr, align 8
  %5 = alloca ptr, align 8
  %6 = alloca ptr, align 8
  %7 = alloca ptr, align 8
  %8 = alloca ptr, align 8
  call void @llvm.lifetime.start.p0(i64 100, ptr %1) #10
  call void @llvm.memcpy.p0.p0.i64(ptr align 16 %1, ptr align 16 @__const.Extra_GraphExperiment.Edges, i64 100, i1 false)
  call void @llvm.lifetime.start.p0(i64 4, ptr %2) #10
  call void @llvm.lifetime.start.p0(i64 4, ptr %3) #10
  call void @llvm.lifetime.start.p0(i64 8, ptr %4) #10
  %9 = call ptr @Cudd_Init(i32 noundef 0, i32 noundef 6, i32 noundef 256, i32 noundef 262144, i64 noundef 0)
  store ptr %9, ptr %4, align 8, !tbaa !3
  call void @llvm.lifetime.start.p0(i64 8, ptr %5) #10
  call void @llvm.lifetime.start.p0(i64 8, ptr %6) #10
  call void @llvm.lifetime.start.p0(i64 8, ptr %7) #10
  call void @llvm.lifetime.start.p0(i64 8, ptr %8) #10
  %10 = load ptr, ptr %4, align 8, !tbaa !3
  %11 = getelementptr inbounds nuw %struct.DdManager, ptr %10, i32 0, i32 2
  %12 = load ptr, ptr %11, align 8, !tbaa !76
  store ptr %12, ptr %5, align 8, !tbaa !8
  %13 = load ptr, ptr %5, align 8, !tbaa !8
  call void @Cudd_Ref(ptr noundef %13)
  store i32 0, ptr %2, align 4, !tbaa !37
  br label %14

14:                                               ; preds = %74, %0
  %15 = load i32, ptr %2, align 4, !tbaa !37
  %16 = sext i32 %15 to i64
  %17 = getelementptr inbounds [5 x [5 x i32]], ptr %1, i64 0, i64 %16
  %18 = getelementptr inbounds [5 x i32], ptr %17, i64 0, i64 0
  %19 = load i32, ptr %18, align 4, !tbaa !37
  %20 = icmp ne i32 %19, 0
  br i1 %20, label %21, label %77

21:                                               ; preds = %14
  %22 = load ptr, ptr %4, align 8, !tbaa !3
  %23 = getelementptr inbounds nuw %struct.DdManager, ptr %22, i32 0, i32 1
  %24 = load ptr, ptr %23, align 8, !tbaa !41
  store ptr %24, ptr %6, align 8, !tbaa !8
  %25 = load ptr, ptr %6, align 8, !tbaa !8
  call void @Cudd_Ref(ptr noundef %25)
  store i32 0, ptr %3, align 4, !tbaa !37
  br label %26

26:                                               ; preds = %61, %21
  %27 = load i32, ptr %2, align 4, !tbaa !37
  %28 = sext i32 %27 to i64
  %29 = getelementptr inbounds [5 x [5 x i32]], ptr %1, i64 0, i64 %28
  %30 = load i32, ptr %3, align 4, !tbaa !37
  %31 = sext i32 %30 to i64
  %32 = getelementptr inbounds [5 x i32], ptr %29, i64 0, i64 %31
  %33 = load i32, ptr %32, align 4, !tbaa !37
  %34 = icmp ne i32 %33, 0
  br i1 %34, label %35, label %64

35:                                               ; preds = %26
  %36 = load ptr, ptr %4, align 8, !tbaa !3
  %37 = load i32, ptr %2, align 4, !tbaa !37
  %38 = sext i32 %37 to i64
  %39 = getelementptr inbounds [5 x [5 x i32]], ptr %1, i64 0, i64 %38
  %40 = load i32, ptr %3, align 4, !tbaa !37
  %41 = sext i32 %40 to i64
  %42 = getelementptr inbounds [5 x i32], ptr %39, i64 0, i64 %41
  %43 = load i32, ptr %42, align 4, !tbaa !37
  %44 = load ptr, ptr %4, align 8, !tbaa !3
  %45 = getelementptr inbounds nuw %struct.DdManager, ptr %44, i32 0, i32 1
  %46 = load ptr, ptr %45, align 8, !tbaa !41
  %47 = load ptr, ptr %4, align 8, !tbaa !3
  %48 = getelementptr inbounds nuw %struct.DdManager, ptr %47, i32 0, i32 2
  %49 = load ptr, ptr %48, align 8, !tbaa !76
  %50 = call ptr @cuddZddGetNode(ptr noundef %36, i32 noundef %43, ptr noundef %46, ptr noundef %49)
  store ptr %50, ptr %7, align 8, !tbaa !8
  %51 = load ptr, ptr %7, align 8, !tbaa !8
  call void @Cudd_Ref(ptr noundef %51)
  %52 = load ptr, ptr %4, align 8, !tbaa !3
  %53 = load ptr, ptr %6, align 8, !tbaa !8
  store ptr %53, ptr %8, align 8, !tbaa !8
  %54 = load ptr, ptr %7, align 8, !tbaa !8
  %55 = call ptr @Cudd_zddUnateProduct(ptr noundef %52, ptr noundef %53, ptr noundef %54)
  store ptr %55, ptr %6, align 8, !tbaa !8
  %56 = load ptr, ptr %6, align 8, !tbaa !8
  call void @Cudd_Ref(ptr noundef %56)
  %57 = load ptr, ptr %4, align 8, !tbaa !3
  %58 = load ptr, ptr %8, align 8, !tbaa !8
  call void @Cudd_RecursiveDerefZdd(ptr noundef %57, ptr noundef %58)
  %59 = load ptr, ptr %4, align 8, !tbaa !3
  %60 = load ptr, ptr %7, align 8, !tbaa !8
  call void @Cudd_RecursiveDerefZdd(ptr noundef %59, ptr noundef %60)
  br label %61

61:                                               ; preds = %35
  %62 = load i32, ptr %3, align 4, !tbaa !37
  %63 = add nsw i32 %62, 1
  store i32 %63, ptr %3, align 4, !tbaa !37
  br label %26, !llvm.loop !97

64:                                               ; preds = %26
  %65 = load ptr, ptr %4, align 8, !tbaa !3
  %66 = load ptr, ptr %5, align 8, !tbaa !8
  store ptr %66, ptr %8, align 8, !tbaa !8
  %67 = load ptr, ptr %6, align 8, !tbaa !8
  %68 = call ptr @Cudd_zddUnion(ptr noundef %65, ptr noundef %66, ptr noundef %67)
  store ptr %68, ptr %5, align 8, !tbaa !8
  %69 = load ptr, ptr %5, align 8, !tbaa !8
  call void @Cudd_Ref(ptr noundef %69)
  %70 = load ptr, ptr %4, align 8, !tbaa !3
  %71 = load ptr, ptr %8, align 8, !tbaa !8
  call void @Cudd_RecursiveDerefZdd(ptr noundef %70, ptr noundef %71)
  %72 = load ptr, ptr %4, align 8, !tbaa !3
  %73 = load ptr, ptr %6, align 8, !tbaa !8
  call void @Cudd_RecursiveDerefZdd(ptr noundef %72, ptr noundef %73)
  br label %74

74:                                               ; preds = %64
  %75 = load i32, ptr %2, align 4, !tbaa !37
  %76 = add nsw i32 %75, 1
  store i32 %76, ptr %2, align 4, !tbaa !37
  br label %14, !llvm.loop !98

77:                                               ; preds = %14
  %78 = load ptr, ptr %4, align 8, !tbaa !3
  %79 = load ptr, ptr %5, align 8, !tbaa !8
  %80 = call i32 @Cudd_zddPrintMinterm(ptr noundef %78, ptr noundef %79)
  %81 = load ptr, ptr %4, align 8, !tbaa !3
  %82 = load ptr, ptr %5, align 8, !tbaa !8
  call void @Cudd_RecursiveDerefZdd(ptr noundef %81, ptr noundef %82)
  %83 = load ptr, ptr %4, align 8, !tbaa !3
  call void @Cudd_Quit(ptr noundef %83)
  call void @llvm.lifetime.end.p0(i64 8, ptr %8) #10
  call void @llvm.lifetime.end.p0(i64 8, ptr %7) #10
  call void @llvm.lifetime.end.p0(i64 8, ptr %6) #10
  call void @llvm.lifetime.end.p0(i64 8, ptr %5) #10
  call void @llvm.lifetime.end.p0(i64 8, ptr %4) #10
  call void @llvm.lifetime.end.p0(i64 4, ptr %3) #10
  call void @llvm.lifetime.end.p0(i64 4, ptr %2) #10
  call void @llvm.lifetime.end.p0(i64 100, ptr %1) #10
  ret void
}